target datalayout = "e-m:e-p270:32:32-p271:32:32-p272:64:64-i64:64-i128:128-f80:128-n8:16:32:64-S128"
target triple = "x86_64-pc-linux-gnu"

%struct.CPpmd8 = type { ptr, ptr, ptr, i32, i32, i32, i32, i32, i32, i32, i32, ptr, ptr, ptr, ptr, ptr, i32, i32, i32, i32, i32, %union.anon, [38 x i8], [128 x i8], [38 x i32], [38 x i32], [256 x i8], [260 x i8], %struct.CPpmd_See, [24 x [32 x %struct.CPpmd_See]], [25 x [64 x i16]] }
%union.anon = type { ptr }
%struct.CPpmd_See = type { i16, i8, i8 }

; Function Attrs: nounwind uwtable
define dso_local void @Ppmd8_Free(ptr noundef %0) #0 {
  %2 = alloca ptr, align 8
  store ptr %0, ptr %2, align 8, !tbaa !4
  %3 = load ptr, ptr %2, align 8, !tbaa !4
  %4 = getelementptr inbounds nuw %struct.CPpmd8, ptr %3, i32 0, i32 11
  %5 = load ptr, ptr %4, align 8, !tbaa !8
  call void @free(ptr noundef %5) #6
  %6 = load ptr, ptr %2, align 8, !tbaa !4
  %7 = getelementptr inbounds nuw %struct.CPpmd8, ptr %6, i32 0, i32 9
  store i32 0, ptr %7, align 8, !tbaa !22
  %8 = load ptr, ptr %2, align 8, !tbaa !4
  %9 = getelementptr inbounds nuw %struct.CPpmd8, ptr %8, i32 0, i32 11
  store ptr null, ptr %9, align 8, !tbaa !8
  ret void
}

; Function Attrs: nounwind uwtable
define dso_local i32 @Ppmd8_Alloc(ptr noundef %0, i32 noundef %1) #0 {
  %3 = alloca i32, align 4
  %4 = alloca ptr, align 8
  %5 = alloca i32, align 4
  store ptr %0, ptr %4, align 8, !tbaa !4
  store i32 %1, ptr %5, align 4, !tbaa !15
  %6 = load ptr, ptr %4, align 8, !tbaa !4
  %7 = getelementptr inbounds nuw %struct.CPpmd8, ptr %6, i32 0, i32 11
  %8 = load ptr, ptr %7, align 8, !tbaa !8
  %9 = icmp eq ptr %8, null
  br i1 %9, label %16, label %10

10:                                               ; preds = %2
  %11 = load ptr, ptr %4, align 8, !tbaa !4
  %12 = getelementptr inbounds nuw %struct.CPpmd8, ptr %11, i32 0, i32 9
  %13 = load i32, ptr %12, align 8, !tbaa !22
  %14 = load i32, ptr %5, align 4, !tbaa !15
  %15 = icmp ne i32 %13, %14
  br i1 %15, label %16, label %38

16:                                               ; preds = %10, %2
  %17 = load ptr, ptr %4, align 8, !tbaa !4
  call void @Ppmd8_Free(ptr noundef %17)
  %18 = load i32, ptr %5, align 4, !tbaa !15
  %19 = and i32 %18, 3
  %20 = sub i32 4, %19
  %21 = load ptr, ptr %4, align 8, !tbaa !4
  %22 = getelementptr inbounds nuw %struct.CPpmd8, ptr %21, i32 0, i32 16
  store i32 %20, ptr %22, align 8, !tbaa !23
  %23 = load ptr, ptr %4, align 8, !tbaa !4
  %24 = getelementptr inbounds nuw %struct.CPpmd8, ptr %23, i32 0, i32 16
  %25 = load i32, ptr %24, align 8, !tbaa !23
  %26 = load i32, ptr %5, align 4, !tbaa !15
  %27 = add i32 %25, %26
  %28 = zext i32 %27 to i64
  %29 = call noalias ptr @malloc(i64 noundef %28) #7
  %30 = load ptr, ptr %4, align 8, !tbaa !4
  %31 = getelementptr inbounds nuw %struct.CPpmd8, ptr %30, i32 0, i32 11
  store ptr %29, ptr %31, align 8, !tbaa !8
  %32 = icmp eq ptr %29, null
  br i1 %32, label %33, label %34

33:                                               ; preds = %16
  store i32 0, ptr %3, align 4
  br label %39

34:                                               ; preds = %16
  %35 = load i32, ptr %5, align 4, !tbaa !15
  %36 = load ptr, ptr %4, align 8, !tbaa !4
  %37 = getelementptr inbounds nuw %struct.CPpmd8, ptr %36, i32 0, i32 9
  store i32 %35, ptr %37, align 8, !tbaa !22
  br label %38

38:                                               ; preds = %34, %10
  store i32 1, ptr %3, align 4
  br label %39

39:                                               ; preds = %38, %33
  %40 = load i32, ptr %3, align 4
  ret i32 %40
}