; Function Attrs: mustprogress nounwind willreturn uwtable
define dso_local range(i32 0, 2) i32 @Ppmd8_Alloc(ptr noundef captures(none) %0, i32 noundef %1) #3 {
  %3 = getelementptr inbounds nuw i8, ptr %0, i64 56
  %4 = load ptr, ptr %3, align 8, !tbaa !4
  %5 = icmp eq ptr %4, null
  br i1 %5, label %9, label %6

6:                                                ; preds = %2
  %7 = getelementptr inbounds nuw i8, ptr %0, i64 48
  %8 = load i32, ptr %7, align 8, !tbaa !20
  %.not = icmp eq i32 %8, %1
  br i1 %.not, label %19, label %9

9:                                                ; preds = %6, %2
  tail call void @free(ptr noundef %4) #13
  %10 = getelementptr inbounds nuw i8, ptr %0, i64 48
  store i32 0, ptr %10, align 8, !tbaa !20
  %11 = and i32 %1, 3
  %12 = sub nuw nsw i32 4, %11
  %13 = getelementptr inbounds nuw i8, ptr %0, i64 96
  store i32 %12, ptr %13, align 8, !tbaa !21
  %14 = add i32 %12, %1
  %15 = zext i32 %14 to i64
  %16 = tail call noalias ptr @malloc(i64 noundef %15) #14
  store ptr %16, ptr %3, align 8, !tbaa !4
  %17 = icmp eq ptr %16, null
  br i1 %17, label %19, label %18

18:                                               ; preds = %9
  store i32 %1, ptr %10, align 8, !tbaa !20
  br label %19

19:                                               ; preds = %6, %18, %9
  %.0 = phi i32 [ 0, %9 ], [ 1, %18 ], [ 1, %6 ]
  ret i32 %.0
}